(iquestion_classification.testing_procedure
Evaluation
p0
(dp1
S'evals'
p2
(lp3
(iquestion_classification.testing_procedure
EvalResult
p4
(dp5
S'fp'
p6
I0
sS'count'
p7
I60
sS'tp'
p8
I34
sS'clazz'
p9
VQC_CAUSE
p10
sS'tn'
p11
I548
sS'fn'
p12
I26
sba(iquestion_classification.testing_procedure
EvalResult
p13
(dp14
g6
I0
sg7
I64
sg8
I62
sg9
VQC_DECISION
p15
sg11
I544
sg12
I2
sba(iquestion_classification.testing_procedure
EvalResult
p16
(dp17
g6
I0
sg7
I81
sg8
I58
sg9
VQC_DEF
p18
sg11
I527
sg12
I23
sba(iquestion_classification.testing_procedure
EvalResult
p19
(dp20
g6
I19
sg7
I64
sg8
I45
sg9
VQC_DIRECT
p21
sg11
I525
sg12
I19
sba(iquestion_classification.testing_procedure
EvalResult
p22
(dp23
g6
I0
sg7
I61
sg8
I47
sg9
VQC_LOC
p24
sg11
I547
sg12
I14
sba(iquestion_classification.testing_procedure
EvalResult
p25
(dp26
g6
I68
sg7
I81
sg8
I80
sg9
VQC_NONPER
p27
sg11
I459
sg12
I1
sba(iquestion_classification.testing_procedure
EvalResult
p28
(dp29
g6
I18
sg7
I31
sg8
I31
sg9
VQC_PER
p30
sg11
I559
sg12
I0
sba(iquestion_classification.testing_procedure
EvalResult
p31
(dp32
g6
I12
sg7
I65
sg8
I57
sg9
VQC_PROCEDURE
p33
sg11
I531
sg12
I8
sba(iquestion_classification.testing_procedure
EvalResult
p34
(dp35
g6
I2
sg7
I36
sg8
I36
sg9
VQC_QUANTITY
p36
sg11
I570
sg12
I0
sba(iquestion_classification.testing_procedure
EvalResult
p37
(dp38
g6
I4
sg7
I25
sg8
I6
sg9
VQC_STATE
p39
sg11
I579
sg12
I19
sba(iquestion_classification.testing_procedure
EvalResult
p40
(dp41
g6
I1
sg7
I40
sg8
I28
sg9
VQC_TEMP
p42
sg11
I567
sg12
I12
sbasb.