(iquestion_classification.testing_procedure
Evaluation
p0
(dp1
S'evals'
p2
(lp3
(iquestion_classification.testing_procedure
EvalResult
p4
(dp5
S'fp'
p6
I2
sS'count'
p7
I60
sS'tp'
p8
I50
sS'clazz'
p9
VQC_CAUSE
p10
sS'tn'
p11
I546
sS'fn'
p12
I10
sba(iquestion_classification.testing_procedure
EvalResult
p13
(dp14
g6
I2
sg7
I64
sg8
I62
sg9
VQC_DECISION
p15
sg11
I542
sg12
I2
sba(iquestion_classification.testing_procedure
EvalResult
p16
(dp17
g6
I5
sg7
I81
sg8
I79
sg9
VQC_DEF
p18
sg11
I522
sg12
I2
sba(iquestion_classification.testing_procedure
EvalResult
p19
(dp20
g6
I6
sg7
I64
sg8
I39
sg9
VQC_DIRECT
p21
sg11
I538
sg12
I25
sba(iquestion_classification.testing_procedure
EvalResult
p22
(dp23
g6
I6
sg7
I61
sg8
I57
sg9
VQC_LOC
p24
sg11
I541
sg12
I4
sba(iquestion_classification.testing_procedure
EvalResult
p25
(dp26
g6
I8
sg7
I81
sg8
I80
sg9
VQC_NONPER
p27
sg11
I519
sg12
I1
sba(iquestion_classification.testing_procedure
EvalResult
p28
(dp29
g6
I1
sg7
I31
sg8
I26
sg9
VQC_PER
p30
sg11
I576
sg12
I5
sba(iquestion_classification.testing_procedure
EvalResult
p31
(dp32
g6
I9
sg7
I65
sg8
I60
sg9
VQC_PROCEDURE
p33
sg11
I534
sg12
I5
sba(iquestion_classification.testing_procedure
EvalResult
p34
(dp35
g6
I1
sg7
I36
sg8
I19
sg9
VQC_QUANTITY
p36
sg11
I571
sg12
I17
sba(iquestion_classification.testing_procedure
EvalResult
p37
(dp38
g6
I14
sg7
I25
sg8
I20
sg9
VQC_STATE
p39
sg11
I569
sg12
I5
sba(iquestion_classification.testing_procedure
EvalResult
p40
(dp41
g6
I29
sg7
I40
sg8
I33
sg9
VQC_TEMP
p42
sg11
I539
sg12
I7
sbasb.