(iquestion_classification.testing_procedure
Evaluation
p0
(dp1
S'evals'
p2
(lp3
(iquestion_classification.testing_procedure
EvalResult
p4
(dp5
S'fp'
p6
I1
sS'count'
p7
I59
sS'tp'
p8
I50
sS'clazz'
p9
VQC_CAUSE
p10
sS'tn'
p11
I543
sS'fn'
p12
I9
sba(iquestion_classification.testing_procedure
EvalResult
p13
(dp14
g6
I2
sg7
I63
sg8
I62
sg9
VQC_DECISION
p15
sg11
I538
sg12
I1
sba(iquestion_classification.testing_procedure
EvalResult
p16
(dp17
g6
I4
sg7
I80
sg8
I73
sg9
VQC_DEF
p18
sg11
I519
sg12
I7
sba(iquestion_classification.testing_procedure
EvalResult
p19
(dp20
g6
I14
sg7
I64
sg8
I50
sg9
VQC_DIRECT
p21
sg11
I525
sg12
I14
sba(iquestion_classification.testing_procedure
EvalResult
p22
(dp23
g6
I9
sg7
I61
sg8
I56
sg9
VQC_LOC
p24
sg11
I533
sg12
I5
sba(iquestion_classification.testing_procedure
EvalResult
p25
(dp26
g6
I14
sg7
I80
sg8
I78
sg9
VQC_NONPER
p27
sg11
I509
sg12
I2
sba(iquestion_classification.testing_procedure
EvalResult
p28
(dp29
g6
I0
sg7
I31
sg8
I28
sg9
VQC_PER
p30
sg11
I572
sg12
I3
sba(iquestion_classification.testing_procedure
EvalResult
p31
(dp32
g6
I6
sg7
I65
sg8
I58
sg9
VQC_PROCEDURE
p33
sg11
I532
sg12
I7
sba(iquestion_classification.testing_procedure
EvalResult
p34
(dp35
g6
I3
sg7
I36
sg8
I34
sg9
VQC_QUANTITY
p36
sg11
I564
sg12
I2
sba(iquestion_classification.testing_procedure
EvalResult
p37
(dp38
g6
I13
sg7
I25
sg8
I18
sg9
VQC_STATE
p39
sg11
I565
sg12
I7
sba(iquestion_classification.testing_procedure
EvalResult
p40
(dp41
g6
I1
sg7
I39
sg8
I29
sg9
VQC_TEMP
p42
sg11
I563
sg12
I10
sbasb.